target datalayout = "e-m:e-p270:32:32-p271:32:32-p272:64:64-i64:64-i128:128-f80:128-n8:16:32:64-S128"
target triple = "x86_64-pc-linux-gnu"

@.str = private unnamed_addr constant [9 x i8] c"PG_COLOR\00", align 1
@stderr = external global ptr, align 8
@progname = internal global ptr null, align 8
@__pg_log_level = dso_local global i32 0, align 4
@.str.1 = private unnamed_addr constant [7 x i8] c"always\00", align 1
@.str.2 = private unnamed_addr constant [5 x i8] c"auto\00", align 1
@.str.3 = private unnamed_addr constant [10 x i8] c"PG_COLORS\00", align 1
@.str.4 = private unnamed_addr constant [2 x i8] c":\00", align 1
@.str.5 = private unnamed_addr constant [6 x i8] c"error\00", align 1
@sgr_error = internal global ptr null, align 8
@.str.6 = private unnamed_addr constant [8 x i8] c"warning\00", align 1
@sgr_warning = internal global ptr null, align 8
@.str.7 = private unnamed_addr constant [5 x i8] c"note\00", align 1
@sgr_note = internal global ptr null, align 8
@.str.8 = private unnamed_addr constant [6 x i8] c"locus\00", align 1
@sgr_locus = internal global ptr null, align 8
@.str.9 = private unnamed_addr constant [6 x i8] c"01;31\00", align 1
@.str.10 = private unnamed_addr constant [6 x i8] c"01;35\00", align 1
@.str.11 = private unnamed_addr constant [6 x i8] c"01;36\00", align 1
@.str.12 = private unnamed_addr constant [3 x i8] c"01\00", align 1

; Function Attrs: nounwind uwtable
define dso_local void @pg_logging_init(ptr noundef %0) #0 {
  %2 = alloca ptr, align 8
  %3 = alloca ptr, align 8
  %4 = alloca i8, align 1
  %5 = alloca i8, align 1
  %6 = alloca ptr, align 8
  %7 = alloca ptr, align 8
  %8 = alloca ptr, align 8
  %9 = alloca ptr, align 8
  %10 = alloca ptr, align 8
  %11 = alloca ptr, align 8
  %12 = alloca ptr, align 8
  store ptr %0, ptr %2, align 8
  call void @llvm.lifetime.start.p0(i64 8, ptr %3) #7
  %13 = call ptr @getenv(ptr noundef @.str) #7
  store ptr %13, ptr %3, align 8
  call void @llvm.lifetime.start.p0(i64 1, ptr %4) #7
  store i8 0, ptr %4, align 1
  call void @llvm.lifetime.start.p0(i64 1, ptr %5) #7
  %14 = load ptr, ptr @stderr, align 8
  %15 = call i32 @fileno(ptr noundef %14) #7
  %16 = call i32 @isatty(i32 noundef %15) #7
  %17 = icmp ne i32 %16, 0
  %18 = zext i1 %17 to i8
  store i8 %18, ptr %5, align 1
  %19 = load ptr, ptr @stderr, align 8
  %20 = call i32 @setvbuf(ptr noundef %19, ptr noundef null, i32 noundef 2, i64 noundef 0) #7
  %21 = load ptr, ptr %2, align 8
  %22 = call ptr @get_progname(ptr noundef %21)
  store ptr %22, ptr @progname, align 8
  store i32 2, ptr @__pg_log_level, align 4
  %23 = load ptr, ptr %3, align 8
  %24 = icmp ne ptr %23, null
  br i1 %24, label %25, label %38

25:                                               ; preds = %1
  %26 = load ptr, ptr %3, align 8
  %27 = call i32 @strcmp(ptr noundef %26, ptr noundef @.str.1) #8
  %28 = icmp eq i32 %27, 0
  br i1 %28, label %36, label %29

29:                                               ; preds = %25
  %30 = load ptr, ptr %3, align 8
  %31 = call i32 @strcmp(ptr noundef %30, ptr noundef @.str.2) #8
  %32 = icmp eq i32 %31, 0
  br i1 %32, label %33, label %37

33:                                               ; preds = %29
  %34 = load i8, ptr %5, align 1, !range !4, !noundef !5
  %35 = trunc i8 %34 to i1
  br i1 %35, label %36, label %37

36:                                               ; preds = %33, %25
  store i8 1, ptr %4, align 1
  br label %37

37:                                               ; preds = %36, %33, %29
  br label %38

38:                                               ; preds = %37, %1
  %39 = load i8, ptr %4, align 1, !range !4, !noundef !5
  %40 = trunc i8 %39 to i1
  br i1 %40, label %41, label %99

41:                                               ; preds = %38
  call void @llvm.lifetime.start.p0(i64 8, ptr %6) #7
  %42 = call ptr @getenv(ptr noundef @.str.3) #7
  store ptr %42, ptr %6, align 8
  %43 = load ptr, ptr %6, align 8
  %44 = icmp ne ptr %43, null
  br i1 %44, label %45, label %97

45:                                               ; preds = %41
  call void @llvm.lifetime.start.p0(i64 8, ptr %7) #7
  %46 = load ptr, ptr %6, align 8
  %47 = call noalias ptr @strdup(ptr noundef %46) #7
  store ptr %47, ptr %7, align 8
  %48 = load ptr, ptr %7, align 8
  %49 = icmp ne ptr %48, null
  br i1 %49, label %50, label %96

50:                                               ; preds = %45
  call void @llvm.lifetime.start.p0(i64 8, ptr %8) #7
  call void @llvm.lifetime.start.p0(i64 8, ptr %9) #7
  %51 = load ptr, ptr %7, align 8
  store ptr %51, ptr %9, align 8
  br label %52

52:                                               ; preds = %93, %50
  %53 = call ptr @strsep(ptr noundef %9, ptr noundef @.str.4) #7
  store ptr %53, ptr %8, align 8
  %54 = icmp ne ptr %53, null
  br i1 %54, label %55, label %94

55:                                               ; preds = %52
  call void @llvm.lifetime.start.p0(i64 8, ptr %10) #7
  %56 = load ptr, ptr %8, align 8
  %57 = call ptr @strchr(ptr noundef %56, i32 noundef 61) #8
  store ptr %57, ptr %10, align 8
  %58 = load ptr, ptr %10, align 8
  %59 = icmp ne ptr %58, null
  br i1 %59, label %60, label %93

60:                                               ; preds = %55
  call void @llvm.lifetime.start.p0(i64 8, ptr %11) #7
  call void @llvm.lifetime.start.p0(i64 8, ptr %12) #7
  %61 = load ptr, ptr %10, align 8
  store i8 0, ptr %61, align 1
  %62 = load ptr, ptr %8, align 8
  store ptr %62, ptr %11, align 8
  %63 = load ptr, ptr %10, align 8
  %64 = getelementptr inbounds i8, ptr %63, i64 1
  store ptr %64, ptr %12, align 8
  %65 = load ptr, ptr %11, align 8
  %66 = call i32 @strcmp(ptr noundef %65, ptr noundef @.str.5) #8
  %67 = icmp eq i32 %66, 0
  br i1 %67, label %68, label %71

68:                                               ; preds = %60
  %69 = load ptr, ptr %12, align 8
  %70 = call noalias ptr @strdup(ptr noundef %69) #7
  store ptr %70, ptr @sgr_error, align 8
  br label %71

71:                                               ; preds = %68, %60
  %72 = load ptr, ptr %11, align 8
  %73 = call i32 @strcmp(ptr noundef %72, ptr noundef @.str.6) #8
  %74 = icmp eq i32 %73, 0
  br i1 %74, label %75, label %78

75:                                               ; preds = %71
  %76 = load ptr, ptr %12, align 8
  %77 = call noalias ptr @strdup(ptr noundef %76) #7
  store ptr %77, ptr @sgr_warning, align 8
  br label %78

78:                                               ; preds = %75, %71
  %79 = load ptr, ptr %11, align 8
  %80 = call i32 @strcmp(ptr noundef %79, ptr noundef @.str.7) #8
  %81 = icmp eq i32 %80, 0
  br i1 %81, label %82, label %85

82:                                               ; preds = %78
  %83 = load ptr, ptr %12, align 8
  %84 = call noalias ptr @strdup(ptr noundef %83) #7
  store ptr %84, ptr @sgr_note, align 8
  br label %85

85:                                               ; preds = %82, %78
  %86 = load ptr, ptr %11, align 8
  %87 = call i32 @strcmp(ptr noundef %86, ptr noundef @.str.8) #8
  %88 = icmp eq i32 %87, 0
  br i1 %88, label %89, label %92

89:                                               ; preds = %85
  %90 = load ptr, ptr %12, align 8
  %91 = call noalias ptr @strdup(ptr noundef %90) #7
  store ptr %91, ptr @sgr_locus, align 8
  br label %92

92:                                               ; preds = %89, %85
  call void @llvm.lifetime.end.p0(i64 8, ptr %12) #7
  call void @llvm.lifetime.end.p0(i64 8, ptr %11) #7
  br label %93

93:                                               ; preds = %92, %55
  call void @llvm.lifetime.end.p0(i64 8, ptr %10) #7
  br label %52, !llvm.loop !6

94:                                               ; preds = %52
  %95 = load ptr, ptr %7, align 8
  call void @free(ptr noundef %95) #7
  call void @llvm.lifetime.end.p0(i64 8, ptr %9) #7
  call void @llvm.lifetime.end.p0(i64 8, ptr %8) #7
  br label %96

96:                                               ; preds = %94, %45
  call void @llvm.lifetime.end.p0(i64 8, ptr %7) #7
  br label %98

97:                                               ; preds = %41
  store ptr @.str.9, ptr @sgr_error, align 8
  store ptr @.str.10, ptr @sgr_warning, align 8
  store ptr @.str.11, ptr @sgr_note, align 8
  store ptr @.str.12, ptr @sgr_locus, align 8
  br label %98

98:                                               ; preds = %97, %96
  call void @llvm.lifetime.end.p0(i64 8, ptr %6) #7
  br label %99

99:                                               ; preds = %98, %38
  call void @llvm.lifetime.end.p0(i64 1, ptr %5) #7
  call void @llvm.lifetime.end.p0(i64 1, ptr %4) #7
  call void @llvm.lifetime.end.p0(i64 8, ptr %3) #7
  ret void
}